; Function Attrs: nounwind uwtable
define noalias noundef ptr @Llb_ManComputeCutLi(ptr noundef %0) local_unnamed_addr #0 {
  %2 = tail call noalias dereferenceable_or_null(16) ptr @malloc(i64 noundef 16) #20
  %3 = getelementptr inbounds nuw i8, ptr %2, i64 4
  store i32 0, ptr %3, align 4, !tbaa !10
  store i32 100, ptr %2, align 8, !tbaa !3
  %4 = tail call noalias dereferenceable_or_null(800) ptr @malloc(i64 noundef 800) #20
  %5 = getelementptr inbounds nuw i8, ptr %2, i64 8
  store ptr %4, ptr %5, align 8, !tbaa !9
  tail call void @Aig_ManIncrementTravId(ptr noundef %0) #22
  %6 = getelementptr i8, ptr %0, i64 104
  %.val2024 = load i32, ptr %6, align 8, !tbaa !46
  %7 = icmp sgt i32 %.val2024, 0
  br i1 %7, label %.lr.ph, label %.critedge

.lr.ph:                                           ; preds = %1
  %8 = getelementptr inbounds nuw i8, ptr %0, i64 24
  %9 = getelementptr i8, ptr %0, i64 112
  %10 = getelementptr i8, ptr %0, i64 312
  br label %11

11:                                               ; preds = %.lr.ph, %55
  %.val2026 = phi i32 [ %.val2024, %.lr.ph ], [ %.val20, %55 ]
  %12 = phi i32 [ 100, %.lr.ph ], [ %56, %55 ]
  %13 = phi i32 [ 0, %.lr.ph ], [ %57, %55 ]
  %.025 = phi i32 [ 0, %.lr.ph ], [ %58, %55 ]
  %14 = load ptr, ptr %8, align 8, !tbaa !47
  %.val21 = load i32, ptr %9, align 8, !tbaa !48
  %15 = add nsw i32 %.val21, %.025
  %16 = getelementptr i8, ptr %14, i64 8
  %.val = load ptr, ptr %16, align 8, !tbaa !9
  %17 = sext i32 %15 to i64
  %18 = getelementptr inbounds ptr, ptr %.val, i64 %17
  %19 = load ptr, ptr %18, align 8, !tbaa !11
  %20 = getelementptr i8, ptr %19, i64 8
  %.val19 = load ptr, ptr %20, align 8, !tbaa !31
  %21 = ptrtoint ptr %.val19 to i64
  %22 = and i64 %21, -2
  %23 = inttoptr i64 %22 to ptr
  %24 = getelementptr i8, ptr %23, i64 24
  %.val22 = load i64, ptr %24, align 8
  %25 = and i64 %.val22, 7
  %.not = icmp eq i64 %25, 1
  br i1 %.not, label %55, label %26

26:                                               ; preds = %11
  %.val17 = load i32, ptr %10, align 8, !tbaa !14
  %27 = getelementptr i8, ptr %23, i64 32
  %.val18 = load i32, ptr %27, align 8, !tbaa !28
  %.not23 = icmp eq i32 %.val18, %.val17
  br i1 %.not23, label %55, label %28

28:                                               ; preds = %26
  store i32 %.val17, ptr %27, align 8, !tbaa !28
  %29 = icmp eq i32 %13, %12
  br i1 %29, label %30, label %.Vec_PtrGrow.exit11_crit_edge.i

.Vec_PtrGrow.exit11_crit_edge.i:                  ; preds = %28
  %.pre.i = load ptr, ptr %5, align 8, !tbaa !9
  br label %Vec_PtrPush.exit

30:                                               ; preds = %28
  %31 = icmp slt i32 %12, 16
  br i1 %31, label %32, label %39

32:                                               ; preds = %30
  %33 = load ptr, ptr %5, align 8, !tbaa !9
  %.not9.i.i = icmp eq ptr %33, null
  br i1 %.not9.i.i, label %36, label %34

34:                                               ; preds = %32
  %35 = tail call dereferenceable_or_null(128) ptr @realloc(ptr noundef nonnull %33, i64 noundef 128) #21
  br label %Vec_PtrGrow.exit.i

36:                                               ; preds = %32
  %37 = tail call noalias dereferenceable_or_null(128) ptr @malloc(i64 noundef 128) #20
  br label %Vec_PtrGrow.exit.i

Vec_PtrGrow.exit.i:                               ; preds = %36, %34
  %38 = phi ptr [ %35, %34 ], [ %37, %36 ]
  store ptr %38, ptr %5, align 8, !tbaa !9
  store i32 16, ptr %2, align 8, !tbaa !3
  br label %Vec_PtrPush.exit

39:                                               ; preds = %30
  %40 = shl nuw nsw i32 %12, 1
  %41 = load ptr, ptr %5, align 8, !tbaa !9
  %.not9.i10.i = icmp eq ptr %41, null
  %42 = zext nneg i32 %40 to i64
  %43 = shl nuw nsw i64 %42, 3
  br i1 %.not9.i10.i, label %46, label %44

44:                                               ; preds = %39
  %45 = tail call ptr @realloc(ptr noundef nonnull %41, i64 noundef %43) #21
  br label %48

46:                                               ; preds = %39
  %47 = tail call noalias ptr @malloc(i64 noundef %43) #20
  br label %48

48:                                               ; preds = %46, %44
  %49 = phi ptr [ %45, %44 ], [ %47, %46 ]
  store ptr %49, ptr %5, align 8, !tbaa !9
  store i32 %40, ptr %2, align 8, !tbaa !3
  br label %Vec_PtrPush.exit

Vec_PtrPush.exit:                                 ; preds = %.Vec_PtrGrow.exit11_crit_edge.i, %Vec_PtrGrow.exit.i, %48
  %50 = phi i32 [ %12, %.Vec_PtrGrow.exit11_crit_edge.i ], [ %40, %48 ], [ 16, %Vec_PtrGrow.exit.i ]
  %51 = phi ptr [ %.pre.i, %.Vec_PtrGrow.exit11_crit_edge.i ], [ %49, %48 ], [ %38, %Vec_PtrGrow.exit.i ]
  %52 = add nsw i32 %13, 1
  store i32 %52, ptr %3, align 4, !tbaa !10
  %53 = sext i32 %13 to i64
  %54 = getelementptr inbounds ptr, ptr %51, i64 %53
  store ptr %23, ptr %54, align 8, !tbaa !11
  %.val20.pre = load i32, ptr %6, align 8, !tbaa !46
  br label %55

55:                                               ; preds = %26, %11, %Vec_PtrPush.exit
  %.val20 = phi i32 [ %.val2026, %26 ], [ %.val2026, %11 ], [ %.val20.pre, %Vec_PtrPush.exit ]
  %56 = phi i32 [ %12, %26 ], [ %12, %11 ], [ %50, %Vec_PtrPush.exit ]
  %57 = phi i32 [ %13, %26 ], [ %13, %11 ], [ %52, %Vec_PtrPush.exit ]
  %58 = add nuw nsw i32 %.025, 1
  %59 = icmp slt i32 %58, %.val20
  br i1 %59, label %11, label %.critedge, !llvm.loop !90

.critedge:                                        ; preds = %55, %1
  ret ptr %2
}